target datalayout = "e-m:e-p270:32:32-p271:32:32-p272:64:64-i64:64-i128:128-f80:128-n8:16:32:64-S128"
target triple = "x86_64-pc-linux-gnu"

%class.ZStatTablePrinter = type { i64, i64, [256 x i8] }
%"class.ZStatTablePrinter::ZColumn" = type { ptr, i64, i64, i64 }
%struct.ZStatRelocationSummary = type { i64, i64, i64, i64, i64, i64 }
%class.anon.43 = type { ptr, ptr }

@.str.12 = private unnamed_addr constant [3 x i8] c"%s\00", align 1
@.str.95 = private unnamed_addr constant [4 x i8] c"%zu\00", align 1
@.str.111 = private unnamed_addr constant [10 x i8] c"%s Pages:\00", align 1
@.str.112 = private unnamed_addr constant [5 x i8] c"%zuM\00", align 1

; Function Attrs: mustprogress nounwind uwtable
define linkonce_odr hidden void @_ZN17ZStatTablePrinter7ZColumnC2EPcmmm(ptr noundef nonnull align 8 dereferenceable(32) %0, ptr noundef %1, i64 noundef %2, i64 noundef %3, i64 noundef %4) unnamed_addr #1 comdat align 2 {
  %6 = alloca ptr, align 8
  %7 = alloca ptr, align 8
  %8 = alloca i64, align 8
  %9 = alloca i64, align 8
  %10 = alloca i64, align 8
  store ptr %0, ptr %6, align 8
  store ptr %1, ptr %7, align 8
  store i64 %2, ptr %8, align 8
  store i64 %3, ptr %9, align 8
  store i64 %4, ptr %10, align 8
  %11 = load ptr, ptr %6, align 8
  %12 = getelementptr inbounds %"class.ZStatTablePrinter::ZColumn", ptr %11, i32 0, i32 0
  %13 = load ptr, ptr %7, align 8
  store ptr %13, ptr %12, align 8
  %14 = getelementptr inbounds %"class.ZStatTablePrinter::ZColumn", ptr %11, i32 0, i32 1
  %15 = load i64, ptr %8, align 8
  store i64 %15, ptr %14, align 8
  %16 = getelementptr inbounds %"class.ZStatTablePrinter::ZColumn", ptr %11, i32 0, i32 2
  %17 = load i64, ptr %9, align 8
  store i64 %17, ptr %16, align 8
  %18 = getelementptr inbounds %"class.ZStatTablePrinter::ZColumn", ptr %11, i32 0, i32 3
  %19 = load i64, ptr %10, align 8
  store i64 %19, ptr %18, align 8
  ret void
}

; Function Attrs: mustprogress nounwind uwtable
define linkonce_odr hidden noundef ptr @_ZN17ZStatTablePrinter7ZColumn3endEv(ptr noundef nonnull align 8 dereferenceable(32) %0) #1 comdat align 2 {
  %2 = alloca ptr, align 8
  store ptr %0, ptr %2, align 8
  %3 = load ptr, ptr %2, align 8
  %4 = getelementptr inbounds %"class.ZStatTablePrinter::ZColumn", ptr %3, i32 0, i32 0
  %5 = load ptr, ptr %4, align 8
  %6 = getelementptr inbounds %"class.ZStatTablePrinter::ZColumn", ptr %3, i32 0, i32 1
  %7 = load i64, ptr %6, align 8
  %8 = getelementptr inbounds i8, ptr %5, i64 %7
  store i8 0, ptr %8, align 1
  %9 = getelementptr inbounds %"class.ZStatTablePrinter::ZColumn", ptr %3, i32 0, i32 0
  %10 = load ptr, ptr %9, align 8
  ret ptr %10
}

; Function Attrs: mustprogress nounwind uwtable
define linkonce_odr hidden void @_ZN17ZStatTablePrinterclEv(ptr dead_on_unwind noalias writable sret(%"class.ZStatTablePrinter::ZColumn") align 8 %0, ptr noundef nonnull align 8 dereferenceable(272) %1) #1 comdat align 2 {
  %3 = alloca ptr, align 8
  store ptr %1, ptr %3, align 8
  %4 = load ptr, ptr %3, align 8
  %5 = getelementptr inbounds %class.ZStatTablePrinter, ptr %4, i32 0, i32 2
  %6 = getelementptr inbounds [256 x i8], ptr %5, i64 0, i64 0
  %7 = getelementptr inbounds %class.ZStatTablePrinter, ptr %4, i32 0, i32 0
  %8 = load i64, ptr %7, align 8
  %9 = getelementptr inbounds %class.ZStatTablePrinter, ptr %4, i32 0, i32 1
  %10 = load i64, ptr %9, align 8
  call void @_ZN17ZStatTablePrinter7ZColumnC2EPcmmm(ptr noundef nonnull align 8 dereferenceable(32) %0, ptr noundef %6, i64 noundef 0, i64 noundef %8, i64 noundef %10)
  ret void
}

; Function Attrs: mustprogress nounwind uwtable
define internal void @"_ZZN15ZStatRelocation18print_page_summaryEvENK3$_1clEPKcR22ZStatRelocationSummarym"(ptr noundef nonnull align 8 dereferenceable(16) %0, ptr noundef %1, ptr noundef nonnull align 8 dereferenceable(48) %2, i64 noundef %3) #1 align 2 {
  %5 = alloca ptr, align 8
  %6 = alloca ptr, align 8
  %7 = alloca ptr, align 8
  %8 = alloca i64, align 8
  %9 = alloca %"class.ZStatTablePrinter::ZColumn", align 8
  %10 = alloca %"class.ZStatTablePrinter::ZColumn", align 8
  %11 = alloca %"class.ZStatTablePrinter::ZColumn", align 8
  %12 = alloca %"class.ZStatTablePrinter::ZColumn", align 8
  %13 = alloca %"class.ZStatTablePrinter::ZColumn", align 8
  %14 = alloca %"class.ZStatTablePrinter::ZColumn", align 8
  %15 = alloca %"class.ZStatTablePrinter::ZColumn", align 8
  %16 = alloca %"class.ZStatTablePrinter::ZColumn", align 8
  store ptr %0, ptr %5, align 8
  store ptr %1, ptr %6, align 8
  store ptr %2, ptr %7, align 8
  store i64 %3, ptr %8, align 8
  %17 = load ptr, ptr %5, align 8
  %18 = getelementptr inbounds %class.anon.43, ptr %17, i32 0, i32 1
  %19 = load ptr, ptr %18, align 8
  call void @_ZN17ZStatTablePrinterclEv(ptr dead_on_unwind writable sret(%"class.ZStatTablePrinter::ZColumn") align 8 %16, ptr noundef nonnull align 8 dereferenceable(272) %19)
  %20 = load ptr, ptr %6, align 8
  call void (ptr, ptr, ptr, ...) @_ZN17ZStatTablePrinter7ZColumn4leftEPKcz(ptr dead_on_unwind writable sret(%"class.ZStatTablePrinter::ZColumn") align 8 %15, ptr noundef nonnull align 8 dereferenceable(32) %16, ptr noundef @.str.111, ptr noundef %20)
  %21 = load ptr, ptr %7, align 8
  %22 = getelementptr inbounds %struct.ZStatRelocationSummary, ptr %21, i32 0, i32 0
  %23 = load i64, ptr %22, align 8
  call void (ptr, ptr, ptr, ...) @_ZN17ZStatTablePrinter7ZColumn5rightEPKcz(ptr dead_on_unwind writable sret(%"class.ZStatTablePrinter::ZColumn") align 8 %14, ptr noundef nonnull align 8 dereferenceable(32) %15, ptr noundef @.str.95, i64 noundef %23)
  %24 = load ptr, ptr %7, align 8
  %25 = getelementptr inbounds %struct.ZStatRelocationSummary, ptr %24, i32 0, i32 4
  %26 = load i64, ptr %25, align 8
  call void (ptr, ptr, ptr, ...) @_ZN17ZStatTablePrinter7ZColumn5rightEPKcz(ptr dead_on_unwind writable sret(%"class.ZStatTablePrinter::ZColumn") align 8 %13, ptr noundef nonnull align 8 dereferenceable(32) %14, ptr noundef @.str.95, i64 noundef %26)
  %27 = load i64, ptr %8, align 8
  call void (ptr, ptr, ptr, ...) @_ZN17ZStatTablePrinter7ZColumn5rightEPKcz(ptr dead_on_unwind writable sret(%"class.ZStatTablePrinter::ZColumn") align 8 %12, ptr noundef nonnull align 8 dereferenceable(32) %13, ptr noundef @.str.95, i64 noundef %27)
  %28 = load ptr, ptr %7, align 8
  %29 = getelementptr inbounds %struct.ZStatRelocationSummary, ptr %28, i32 0, i32 1
  %30 = load i64, ptr %29, align 8
  %31 = udiv i64 %30, 1048576
  call void (ptr, ptr, ptr, ...) @_ZN17ZStatTablePrinter7ZColumn5rightEPKcz(ptr dead_on_unwind writable sret(%"class.ZStatTablePrinter::ZColumn") align 8 %11, ptr noundef nonnull align 8 dereferenceable(32) %12, ptr noundef @.str.112, i64 noundef %31)
  %32 = load ptr, ptr %7, align 8
  %33 = getelementptr inbounds %struct.ZStatRelocationSummary, ptr %32, i32 0, i32 3
  %34 = load i64, ptr %33, align 8
  %35 = udiv i64 %34, 1048576
  call void (ptr, ptr, ptr, ...) @_ZN17ZStatTablePrinter7ZColumn5rightEPKcz(ptr dead_on_unwind writable sret(%"class.ZStatTablePrinter::ZColumn") align 8 %10, ptr noundef nonnull align 8 dereferenceable(32) %11, ptr noundef @.str.112, i64 noundef %35)
  %36 = load ptr, ptr %7, align 8
  %37 = getelementptr inbounds %struct.ZStatRelocationSummary, ptr %36, i32 0, i32 5
  %38 = load i64, ptr %37, align 8
  %39 = udiv i64 %38, 1048576
  call void (ptr, ptr, ptr, ...) @_ZN17ZStatTablePrinter7ZColumn5rightEPKcz(ptr dead_on_unwind writable sret(%"class.ZStatTablePrinter::ZColumn") align 8 %9, ptr noundef nonnull align 8 dereferenceable(32) %10, ptr noundef @.str.112, i64 noundef %39)
  %40 = call noundef ptr @_ZN17ZStatTablePrinter7ZColumn3endEv(ptr noundef nonnull align 8 dereferenceable(32) %9)
  call void (ptr, ...) @_ZN13LogTargetImplILN8LogLevel4typeE3ELN6LogTag4typeE49ELS3_129ELS3_0ELS3_0ELS3_0ELS3_0EE5printEPKcz(ptr noundef @.str.12, ptr noundef %40)
  ret void
}