; Function Attrs: mustprogress nounwind uwtable
define internal fastcc void @"_ZZN15ZStatRelocation18print_page_summaryEvENK3$_1clEPKcR22ZStatRelocationSummarym"(ptr %.8.val, ptr noundef %0, ptr nocapture noundef nonnull readonly align 8 dereferenceable(48) %1, i64 noundef %2) unnamed_addr #0 align 2 {
  %4 = alloca %"class.ZStatTablePrinter::ZColumn", align 8
  %5 = alloca %"class.ZStatTablePrinter::ZColumn", align 8
  %6 = alloca %"class.ZStatTablePrinter::ZColumn", align 8
  %7 = alloca %"class.ZStatTablePrinter::ZColumn", align 8
  %8 = alloca %"class.ZStatTablePrinter::ZColumn", align 8
  %9 = alloca %"class.ZStatTablePrinter::ZColumn", align 8
  %10 = alloca %"class.ZStatTablePrinter::ZColumn", align 8
  %11 = alloca %"class.ZStatTablePrinter::ZColumn", align 8
  tail call void @llvm.experimental.noalias.scope.decl(metadata !126)
  %12 = getelementptr inbounds i8, ptr %.8.val, i64 16
  store ptr %12, ptr %11, align 8, !alias.scope !126
  %13 = getelementptr inbounds i8, ptr %11, i64 8
  store i64 0, ptr %13, align 8, !alias.scope !126
  %14 = getelementptr inbounds i8, ptr %11, i64 16
  %15 = load <2 x i64>, ptr %.8.val, align 8, !noalias !126
  store <2 x i64> %15, ptr %14, align 8, !alias.scope !126
  call void (ptr, ptr, ptr, ...) @_ZN17ZStatTablePrinter7ZColumn4leftEPKcz(ptr dead_on_unwind nonnull writable sret(%"class.ZStatTablePrinter::ZColumn") align 8 %10, ptr noundef nonnull align 8 dereferenceable(32) %11, ptr noundef nonnull @.str.111, ptr noundef %0)
  %16 = load i64, ptr %1, align 8
  call void (ptr, ptr, ptr, ...) @_ZN17ZStatTablePrinter7ZColumn5rightEPKcz(ptr dead_on_unwind nonnull writable sret(%"class.ZStatTablePrinter::ZColumn") align 8 %9, ptr noundef nonnull align 8 dereferenceable(32) %10, ptr noundef nonnull @.str.95, i64 noundef %16)
  %17 = getelementptr inbounds i8, ptr %1, i64 32
  %18 = load i64, ptr %17, align 8
  call void (ptr, ptr, ptr, ...) @_ZN17ZStatTablePrinter7ZColumn5rightEPKcz(ptr dead_on_unwind nonnull writable sret(%"class.ZStatTablePrinter::ZColumn") align 8 %8, ptr noundef nonnull align 8 dereferenceable(32) %9, ptr noundef nonnull @.str.95, i64 noundef %18)
  call void (ptr, ptr, ptr, ...) @_ZN17ZStatTablePrinter7ZColumn5rightEPKcz(ptr dead_on_unwind nonnull writable sret(%"class.ZStatTablePrinter::ZColumn") align 8 %7, ptr noundef nonnull align 8 dereferenceable(32) %8, ptr noundef nonnull @.str.95, i64 noundef %2)
  %19 = getelementptr inbounds i8, ptr %1, i64 8
  %20 = load i64, ptr %19, align 8
  %21 = lshr i64 %20, 20
  call void (ptr, ptr, ptr, ...) @_ZN17ZStatTablePrinter7ZColumn5rightEPKcz(ptr dead_on_unwind nonnull writable sret(%"class.ZStatTablePrinter::ZColumn") align 8 %6, ptr noundef nonnull align 8 dereferenceable(32) %7, ptr noundef nonnull @.str.112, i64 noundef %21)
  %22 = getelementptr inbounds i8, ptr %1, i64 24
  %23 = load i64, ptr %22, align 8
  %24 = lshr i64 %23, 20
  call void (ptr, ptr, ptr, ...) @_ZN17ZStatTablePrinter7ZColumn5rightEPKcz(ptr dead_on_unwind nonnull writable sret(%"class.ZStatTablePrinter::ZColumn") align 8 %5, ptr noundef nonnull align 8 dereferenceable(32) %6, ptr noundef nonnull @.str.112, i64 noundef %24)
  %25 = getelementptr inbounds i8, ptr %1, i64 40
  %26 = load i64, ptr %25, align 8
  %27 = lshr i64 %26, 20
  call void (ptr, ptr, ptr, ...) @_ZN17ZStatTablePrinter7ZColumn5rightEPKcz(ptr dead_on_unwind nonnull writable sret(%"class.ZStatTablePrinter::ZColumn") align 8 %4, ptr noundef nonnull align 8 dereferenceable(32) %5, ptr noundef nonnull @.str.112, i64 noundef %27)
  %28 = load ptr, ptr %4, align 8
  %29 = getelementptr inbounds i8, ptr %4, i64 8
  %30 = load i64, ptr %29, align 8
  %31 = getelementptr inbounds i8, ptr %28, i64 %30
  store i8 0, ptr %31, align 1
  %32 = load ptr, ptr %4, align 8
  call void (ptr, ...) @_ZN13LogTargetImplILN8LogLevel4typeE3ELN6LogTag4typeE49ELS3_129ELS3_0ELS3_0ELS3_0ELS3_0EE5printEPKcz(ptr noundef nonnull @.str.12, ptr noundef %32)
  ret void
}